target datalayout = "e-m:e-p270:32:32-p271:32:32-p272:64:64-i64:64-i128:128-f80:128-n8:16:32:64-S128"
target triple = "x86_64-pc-linux-gnu"

@sort_flag = dso_local global i32 0, align 4
@stderr = external global ptr, align 8
@.str.95 = private unnamed_addr constant [5 x i8] c"Name\00", align 1
@.str.96 = private unnamed_addr constant [5 x i8] c"Time\00", align 1
@.str.97 = private unnamed_addr constant [27 x i8] c"unknown timesort format %s\00", align 1

; Function Attrs: nounwind uwtable
define internal i32 @_set_sort(ptr noundef %0) #0 {
  %2 = alloca i32, align 4
  %3 = alloca ptr, align 8
  %4 = alloca i32, align 4
  %5 = alloca i32, align 4
  store ptr %0, ptr %3, align 8
  call void @llvm.lifetime.start.p0(i64 4, ptr %4) #11
  %6 = load ptr, ptr %3, align 8
  %7 = call i64 @strlen(ptr noundef %6) #15
  %8 = trunc i64 %7 to i32
  store i32 %8, ptr %4, align 4
  %9 = load ptr, ptr %3, align 8
  %10 = load i32, ptr %4, align 4
  %11 = icmp sgt i32 %10, 1
  br i1 %11, label %12, label %14

12:                                               ; preds = %1
  %13 = load i32, ptr %4, align 4
  br label %15

14:                                               ; preds = %1
  br label %15

15:                                               ; preds = %14, %12
  %16 = phi i32 [ %13, %12 ], [ 1, %14 ]
  %17 = sext i32 %16 to i64
  %18 = call i32 @xstrncasecmp(ptr noundef %9, ptr noundef @.str.95, i64 noundef %17)
  %19 = icmp eq i32 %18, 0
  br i1 %19, label %20, label %21

20:                                               ; preds = %15
  store i32 1, ptr @sort_flag, align 4
  br label %39

21:                                               ; preds = %15
  %22 = load ptr, ptr %3, align 8
  %23 = load i32, ptr %4, align 4
  %24 = icmp sgt i32 %23, 6
  br i1 %24, label %25, label %27

25:                                               ; preds = %21
  %26 = load i32, ptr %4, align 4
  br label %28

27:                                               ; preds = %21
  br label %28

28:                                               ; preds = %27, %25
  %29 = phi i32 [ %26, %25 ], [ 6, %27 ]
  %30 = sext i32 %29 to i64
  %31 = call i32 @xstrncasecmp(ptr noundef %22, ptr noundef @.str.96, i64 noundef %30)
  %32 = icmp eq i32 %31, 0
  br i1 %32, label %33, label %34

33:                                               ; preds = %28
  store i32 0, ptr @sort_flag, align 4
  br label %38

34:                                               ; preds = %28
  %35 = load ptr, ptr @stderr, align 8
  %36 = load ptr, ptr %3, align 8
  %37 = call i32 (ptr, ptr, ...) @fprintf(ptr noundef %35, ptr noundef @.str.97, ptr noundef %36) #11
  store i32 -1, ptr %2, align 4
  store i32 1, ptr %5, align 4
  br label %40

38:                                               ; preds = %33
  br label %39

39:                                               ; preds = %38, %20
  store i32 0, ptr %2, align 4
  store i32 1, ptr %5, align 4
  br label %40

40:                                               ; preds = %39, %34
  call void @llvm.lifetime.end.p0(i64 4, ptr %4) #11
  %41 = load i32, ptr %2, align 4
  ret i32 %41
}