; Function Attrs: nounwind uwtable
define internal fastcc void @_set_sort(ptr noundef %0) unnamed_addr #8 {
  %2 = tail call i64 @strlen(ptr noundef nonnull dereferenceable(1) %0) #21
  %3 = trunc i64 %2 to i32
  %4 = tail call i32 @llvm.smax.i32(i32 %3, i32 1)
  %5 = zext nneg i32 %4 to i64
  %6 = tail call i32 @xstrncasecmp(ptr noundef nonnull %0, ptr noundef nonnull @.str.95, i64 noundef %5) #17
  %7 = icmp eq i32 %6, 0
  br i1 %7, label %16, label %8

8:                                                ; preds = %1
  %9 = tail call i32 @llvm.smax.i32(i32 %3, i32 6)
  %10 = zext nneg i32 %9 to i64
  %11 = tail call i32 @xstrncasecmp(ptr noundef nonnull %0, ptr noundef nonnull @.str.96, i64 noundef %10) #17
  %12 = icmp eq i32 %11, 0
  br i1 %12, label %16, label %13

13:                                               ; preds = %8
  %14 = load ptr, ptr @stderr, align 8
  %15 = tail call i32 (ptr, ptr, ...) @fprintf(ptr noundef %14, ptr noundef nonnull @.str.97, ptr noundef nonnull %0) #22
  br label %17

16:                                               ; preds = %8, %1
  %storemerge = phi i32 [ 1, %1 ], [ 0, %8 ]
  store i32 %storemerge, ptr @sort_flag, align 4
  br label %17

17:                                               ; preds = %16, %13
  ret void
}